; Function Attrs: mustprogress uwtable
define noundef i32 @_ZN6icu_7516CollationBuilder14addIfDifferentERKNS_13UnicodeStringES3_PKlijR10UErrorCode(ptr nocapture noundef nonnull readonly align 8 dereferenceable(616) %this, ptr noundef nonnull align 8 dereferenceable(64) %prefix, ptr noundef nonnull align 8 dereferenceable(64) %str, ptr noundef %newCEs, i32 noundef %newCEsLength, i32 noundef %ce32, ptr noundef nonnull align 4 dereferenceable(4) %errorCode) local_unnamed_addr #0 align 2 {
entry:
  %oldCEs = alloca [31 x i64], align 16
  %0 = load i32, ptr %errorCode, align 4
  %cmp.i = icmp slt i32 %0, 1
  br i1 %cmp.i, label %if.end, label %return

if.end:                                           ; preds = %entry
  %dataBuilder = getelementptr inbounds i8, ptr %this, i64 72
  %1 = load ptr, ptr %dataBuilder, align 8
  %call2 = call noundef i32 @_ZN6icu_7520CollationDataBuilder6getCEsERKNS_13UnicodeStringES3_Pli(ptr noundef nonnull align 8 dereferenceable(640) %1, ptr noundef nonnull align 8 dereferenceable(64) %prefix, ptr noundef nonnull align 8 dereferenceable(64) %str, ptr noundef nonnull %oldCEs, i32 noundef 0)
  %cmp.not.i = icmp eq i32 %call2, %newCEsLength
  br i1 %cmp.not.i, label %for.cond.preheader.i, label %if.then6

for.cond.preheader.i:                             ; preds = %if.end
  %cmp15.i = icmp sgt i32 %newCEsLength, 0
  br i1 %cmp15.i, label %for.body.preheader.i, label %return

for.body.preheader.i:                             ; preds = %for.cond.preheader.i
  %wide.trip.count.i = zext nneg i32 %newCEsLength to i64
  br label %for.body.i

for.cond.i:                                       ; preds = %for.body.i
  %indvars.iv.next.i = add nuw nsw i64 %indvars.iv.i, 1
  %exitcond.not.i = icmp eq i64 %indvars.iv.next.i, %wide.trip.count.i
  br i1 %exitcond.not.i, label %return, label %for.body.i, !llvm.loop !10

for.body.i:                                       ; preds = %for.cond.i, %for.body.preheader.i
  %indvars.iv.i = phi i64 [ 0, %for.body.preheader.i ], [ %indvars.iv.next.i, %for.cond.i ]
  %arrayidx.i = getelementptr inbounds i64, ptr %newCEs, i64 %indvars.iv.i
  %2 = load i64, ptr %arrayidx.i, align 8
  %arrayidx3.i = getelementptr inbounds i64, ptr %oldCEs, i64 %indvars.iv.i
  %3 = load i64, ptr %arrayidx3.i, align 8
  %cmp4.not.i = icmp eq i64 %2, %3
  br i1 %cmp4.not.i, label %for.cond.i, label %if.then6

if.then6:                                         ; preds = %for.body.i, %if.end
  %cmp = icmp eq i32 %ce32, -1
  br i1 %cmp, label %if.then7, label %if.end10

if.then7:                                         ; preds = %if.then6
  %4 = load ptr, ptr %dataBuilder, align 8
  %vtable = load ptr, ptr %4, align 8
  %vfn = getelementptr inbounds i8, ptr %vtable, i64 32
  %5 = load ptr, ptr %vfn, align 8
  %call9 = call noundef i32 %5(ptr noundef nonnull align 8 dereferenceable(640) %4, ptr noundef %newCEs, i32 noundef %newCEsLength, ptr noundef nonnull align 4 dereferenceable(4) %errorCode)
  br label %if.end10

if.end10:                                         ; preds = %if.then7, %if.then6
  %ce32.addr.0 = phi i32 [ %call9, %if.then7 ], [ %ce32, %if.then6 ]
  %6 = load ptr, ptr %dataBuilder, align 8
  call void @_ZN6icu_7520CollationDataBuilder7addCE32ERKNS_13UnicodeStringES3_jR10UErrorCode(ptr noundef nonnull align 8 dereferenceable(640) %6, ptr noundef nonnull align 8 dereferenceable(64) %prefix, ptr noundef nonnull align 8 dereferenceable(64) %str, i32 noundef %ce32.addr.0, ptr noundef nonnull align 4 dereferenceable(4) %errorCode)
  br label %return

return:                                           ; preds = %for.cond.i, %for.cond.preheader.i, %if.end10, %entry
  %retval.0 = phi i32 [ %ce32, %entry ], [ %ce32.addr.0, %if.end10 ], [ %ce32, %for.cond.preheader.i ], [ %ce32, %for.cond.i ]
  ret i32 %retval.0
}